target datalayout = "e-m:e-p270:32:32-p271:32:32-p272:64:64-i64:64-i128:128-f80:128-n8:16:32:64-S128"
target triple = "x86_64-pc-linux-gnu"

%struct.BlockRefTable = type { ptr, ptr }
%struct.blockreftable_hash = type { i64, i32, i32, i32, ptr, ptr, ptr }
%struct.BlockRefTableKey = type { %struct.RelFileLocator, i32 }
%struct.RelFileLocator = type { i32, i32, i32 }
%struct.BlockRefTableEntry = type { %struct.BlockRefTableKey, i32, i8, i32, ptr, ptr, ptr }

; Function Attrs: inlinehint nounwind uwtable
define internal i32 @blockreftable_next(ptr noundef %0, i32 noundef %1, i32 noundef %2) #3 {
  %4 = alloca ptr, align 8
  %5 = alloca i32, align 4
  %6 = alloca i32, align 4
  store ptr %0, ptr %4, align 8
  store i32 %1, ptr %5, align 4
  store i32 %2, ptr %6, align 4
  %7 = load i32, ptr %5, align 4
  %8 = add i32 %7, 1
  %9 = load ptr, ptr %4, align 8
  %10 = getelementptr inbounds nuw %struct.blockreftable_hash, ptr %9, i32 0, i32 2
  %11 = load i32, ptr %10, align 4
  %12 = and i32 %8, %11
  store i32 %12, ptr %5, align 4
  %13 = load i32, ptr %5, align 4
  ret i32 %13
}

; Function Attrs: inlinehint nounwind uwtable
define internal i32 @blockreftable_initial_bucket(ptr noundef %0, i32 noundef %1) #3 {
  %3 = alloca ptr, align 8
  %4 = alloca i32, align 4
  store ptr %0, ptr %3, align 8
  store i32 %1, ptr %4, align 4
  %5 = load i32, ptr %4, align 4
  %6 = load ptr, ptr %3, align 8
  %7 = getelementptr inbounds nuw %struct.blockreftable_hash, ptr %6, i32 0, i32 2
  %8 = load i32, ptr %7, align 4
  %9 = and i32 %5, %8
  ret i32 %9
}

; Function Attrs: inlinehint nounwind uwtable
define internal ptr @blockreftable_lookup_hash_internal(ptr noundef %0, i64 %1, i64 %2, i32 noundef %3) #3 {
  %5 = alloca ptr, align 8
  %6 = alloca %struct.BlockRefTableKey, align 4
  %7 = alloca ptr, align 8
  %8 = alloca i32, align 4
  %9 = alloca i32, align 4
  %10 = alloca i32, align 4
  %11 = alloca ptr, align 8
  %12 = alloca i32, align 4
  %13 = getelementptr inbounds nuw { i64, i64 }, ptr %6, i32 0, i32 0
  store i64 %1, ptr %13, align 4
  %14 = getelementptr inbounds nuw { i64, i64 }, ptr %6, i32 0, i32 1
  store i64 %2, ptr %14, align 4
  store ptr %0, ptr %7, align 8
  store i32 %3, ptr %8, align 4
  call void @llvm.lifetime.start.p0(i64 4, ptr %9) #10
  %15 = load ptr, ptr %7, align 8
  %16 = load i32, ptr %8, align 4
  %17 = call i32 @blockreftable_initial_bucket(ptr noundef %15, i32 noundef %16)
  store i32 %17, ptr %9, align 4
  call void @llvm.lifetime.start.p0(i64 4, ptr %10) #10
  %18 = load i32, ptr %9, align 4
  store i32 %18, ptr %10, align 4
  br label %19

19:                                               ; preds = %47, %4
  br label %20

20:                                               ; preds = %19
  call void @llvm.lifetime.start.p0(i64 8, ptr %11) #10
  %21 = load ptr, ptr %7, align 8
  %22 = getelementptr inbounds nuw %struct.blockreftable_hash, ptr %21, i32 0, i32 4
  %23 = load ptr, ptr %22, align 8
  %24 = load i32, ptr %10, align 4
  %25 = zext i32 %24 to i64
  %26 = getelementptr inbounds nuw %struct.BlockRefTableEntry, ptr %23, i64 %25
  store ptr %26, ptr %11, align 8
  %27 = load ptr, ptr %11, align 8
  %28 = getelementptr inbounds nuw %struct.BlockRefTableEntry, ptr %27, i32 0, i32 2
  %29 = load i8, ptr %28, align 4
  %30 = sext i8 %29 to i32
  %31 = icmp eq i32 %30, 0
  br i1 %31, label %32, label %33

32:                                               ; preds = %20
  store ptr null, ptr %5, align 8
  store i32 1, ptr %12, align 4
  br label %45

33:                                               ; preds = %20
  %34 = load ptr, ptr %11, align 8
  %35 = getelementptr inbounds nuw %struct.BlockRefTableEntry, ptr %34, i32 0, i32 0
  %36 = call i32 @memcmp(ptr noundef %35, ptr noundef %6, i64 noundef 16) #11
  %37 = icmp eq i32 %36, 0
  br i1 %37, label %38, label %40

38:                                               ; preds = %33
  %39 = load ptr, ptr %11, align 8
  store ptr %39, ptr %5, align 8
  store i32 1, ptr %12, align 4
  br label %45

40:                                               ; preds = %33
  %41 = load ptr, ptr %7, align 8
  %42 = load i32, ptr %10, align 4
  %43 = load i32, ptr %9, align 4
  %44 = call i32 @blockreftable_next(ptr noundef %41, i32 noundef %42, i32 noundef %43)
  store i32 %44, ptr %10, align 4
  store i32 0, ptr %12, align 4
  br label %45

45:                                               ; preds = %40, %38, %32
  call void @llvm.lifetime.end.p0(i64 8, ptr %11) #10
  %46 = load i32, ptr %12, align 4
  switch i32 %46, label %48 [
    i32 0, label %47
  ]

47:                                               ; preds = %45
  br label %19

48:                                               ; preds = %45
  call void @llvm.lifetime.end.p0(i64 4, ptr %10) #10
  call void @llvm.lifetime.end.p0(i64 4, ptr %9) #10
  %49 = load ptr, ptr %5, align 8
  ret ptr %49
}

; Function Attrs: inlinehint nounwind uwtable
define internal ptr @blockreftable_lookup(ptr noundef %0, i64 %1, i64 %2) #3 {
  %4 = alloca %struct.BlockRefTableKey, align 4
  %5 = alloca ptr, align 8
  %6 = alloca i32, align 4
  %7 = getelementptr inbounds nuw { i64, i64 }, ptr %4, i32 0, i32 0
  store i64 %1, ptr %7, align 4
  %8 = getelementptr inbounds nuw { i64, i64 }, ptr %4, i32 0, i32 1
  store i64 %2, ptr %8, align 4
  store ptr %0, ptr %5, align 8
  call void @llvm.lifetime.start.p0(i64 4, ptr %6) #10
  %9 = call i32 @hash_bytes(ptr noundef %4, i32 noundef 16)
  store i32 %9, ptr %6, align 4
  %10 = load ptr, ptr %5, align 8
  %11 = load i32, ptr %6, align 4
  %12 = getelementptr inbounds nuw { i64, i64 }, ptr %4, i32 0, i32 0
  %13 = load i64, ptr %12, align 4
  %14 = getelementptr inbounds nuw { i64, i64 }, ptr %4, i32 0, i32 1
  %15 = load i64, ptr %14, align 4
  %16 = call ptr @blockreftable_lookup_hash_internal(ptr noundef %10, i64 %13, i64 %15, i32 noundef %11)
  call void @llvm.lifetime.end.p0(i64 4, ptr %6) #10
  ret ptr %16
}

; Function Attrs: nounwind uwtable
define dso_local ptr @BlockRefTableGetEntry(ptr noundef %0, ptr noundef %1, i32 noundef %2, ptr noundef %3) #0 {
  %5 = alloca ptr, align 8
  %6 = alloca ptr, align 8
  %7 = alloca i32, align 4
  %8 = alloca ptr, align 8
  %9 = alloca %struct.BlockRefTableKey, align 4
  %10 = alloca ptr, align 8
  store ptr %0, ptr %5, align 8
  store ptr %1, ptr %6, align 8
  store i32 %2, ptr %7, align 4
  store ptr %3, ptr %8, align 8
  call void @llvm.lifetime.start.p0(i64 16, ptr %9) #10
  call void @llvm.memset.p0.i64(ptr align 4 %9, i8 0, i64 16, i1 false)
  call void @llvm.lifetime.start.p0(i64 8, ptr %10) #10
  %11 = getelementptr inbounds nuw %struct.BlockRefTableKey, ptr %9, i32 0, i32 0
  %12 = load ptr, ptr %6, align 8
  call void @llvm.memcpy.p0.p0.i64(ptr align 4 %11, ptr align 4 %12, i64 12, i1 false)
  %13 = load i32, ptr %7, align 4
  %14 = getelementptr inbounds nuw %struct.BlockRefTableKey, ptr %9, i32 0, i32 1
  store i32 %13, ptr %14, align 4
  %15 = load ptr, ptr %5, align 8
  %16 = getelementptr inbounds nuw %struct.BlockRefTable, ptr %15, i32 0, i32 0
  %17 = load ptr, ptr %16, align 8
  %18 = getelementptr inbounds nuw { i64, i64 }, ptr %9, i32 0, i32 0
  %19 = load i64, ptr %18, align 4
  %20 = getelementptr inbounds nuw { i64, i64 }, ptr %9, i32 0, i32 1
  %21 = load i64, ptr %20, align 4
  %22 = call ptr @blockreftable_lookup(ptr noundef %17, i64 %19, i64 %21)
  store ptr %22, ptr %10, align 8
  %23 = load ptr, ptr %10, align 8
  %24 = icmp ne ptr %23, null
  br i1 %24, label %25, label %30

25:                                               ; preds = %4
  %26 = load ptr, ptr %10, align 8
  %27 = getelementptr inbounds nuw %struct.BlockRefTableEntry, ptr %26, i32 0, i32 1
  %28 = load i32, ptr %27, align 8
  %29 = load ptr, ptr %8, align 8
  store i32 %28, ptr %29, align 4
  br label %30

30:                                               ; preds = %25, %4
  %31 = load ptr, ptr %10, align 8
  call void @llvm.lifetime.end.p0(i64 8, ptr %10) #10
  call void @llvm.lifetime.end.p0(i64 16, ptr %9) #10
  ret ptr %31
}