; Function Attrs: nounwind uwtable
define dso_local noundef ptr @BlockRefTableGetEntry(ptr noundef readonly captures(none) %0, ptr noundef readonly captures(none) %1, i32 noundef %2, ptr noundef writeonly captures(none) %3) local_unnamed_addr #0 {
  %5 = alloca %struct.BlockRefTableKey, align 8
  %6 = alloca %struct.BlockRefTableKey, align 8
  %.sroa.0.0.copyload = load i64, ptr %1, align 4
  %.sroa.5.0..sroa_idx = getelementptr inbounds nuw i8, ptr %1, i64 8
  %.sroa.5.0.copyload = load i32, ptr %.sroa.5.0..sroa_idx, align 4
  %.sroa.5.0.insert.ext = zext i32 %.sroa.5.0.copyload to i64
  %.sroa.5.12.insert.ext = zext i32 %2 to i64
  %.sroa.5.12.insert.shift = shl nuw i64 %.sroa.5.12.insert.ext, 32
  %.sroa.5.12.insert.insert = or disjoint i64 %.sroa.5.12.insert.shift, %.sroa.5.0.insert.ext
  %7 = load ptr, ptr %0, align 8
  call void @llvm.lifetime.start.p0(i64 16, ptr nonnull %6)
  store i64 %.sroa.0.0.copyload, ptr %6, align 8
  %8 = getelementptr inbounds nuw i8, ptr %6, i64 8
  store i64 %.sroa.5.12.insert.insert, ptr %8, align 8
  %9 = call i32 @hash_bytes(ptr noundef nonnull %6, i32 noundef 16) #14
  %10 = load i64, ptr %6, align 8
  %11 = load i64, ptr %8, align 8
  call void @llvm.lifetime.start.p0(i64 16, ptr nonnull %5)
  store i64 %10, ptr %5, align 8
  %12 = getelementptr inbounds nuw i8, ptr %5, i64 8
  store i64 %11, ptr %12, align 8
  %13 = getelementptr i8, ptr %7, i64 12
  %.val.i.i = load i32, ptr %13, align 4
  %14 = getelementptr inbounds nuw i8, ptr %7, i64 24
  %15 = load ptr, ptr %14, align 8
  %.01320.i.i = and i32 %.val.i.i, %9
  %16 = zext i32 %.01320.i.i to i64
  %17 = getelementptr inbounds nuw %struct.BlockRefTableEntry, ptr %15, i64 %16
  %18 = getelementptr inbounds nuw i8, ptr %17, i64 20
  %19 = load i8, ptr %18, align 4
  %20 = icmp eq i8 %19, 0
  br i1 %20, label %blockreftable_lookup.exit.thread, label %.lr.ph.i.i

21:                                               ; preds = %.lr.ph.i.i
  %22 = add i32 %.01321.i.i, 1
  %.013.i.i = and i32 %22, %.val.i.i
  %23 = zext i32 %.013.i.i to i64
  %24 = getelementptr inbounds nuw %struct.BlockRefTableEntry, ptr %15, i64 %23
  %25 = getelementptr inbounds nuw i8, ptr %24, i64 20
  %26 = load i8, ptr %25, align 4
  %27 = icmp eq i8 %26, 0
  br i1 %27, label %blockreftable_lookup.exit.thread, label %.lr.ph.i.i

.lr.ph.i.i:                                       ; preds = %4, %21
  %28 = phi ptr [ %24, %21 ], [ %17, %4 ]
  %.01321.i.i = phi i32 [ %.013.i.i, %21 ], [ %.01320.i.i, %4 ]
  %bcmp.i.i = call i32 @bcmp(ptr noundef nonnull dereferenceable(16) %28, ptr noundef nonnull dereferenceable(16) %5, i64 16)
  %29 = icmp eq i32 %bcmp.i.i, 0
  br i1 %29, label %30, label %21

blockreftable_lookup.exit.thread:                 ; preds = %21, %4
  call void @llvm.lifetime.end.p0(i64 16, ptr nonnull %5)
  call void @llvm.lifetime.end.p0(i64 16, ptr nonnull %6)
  br label %33

30:                                               ; preds = %.lr.ph.i.i
  call void @llvm.lifetime.end.p0(i64 16, ptr nonnull %5)
  call void @llvm.lifetime.end.p0(i64 16, ptr nonnull %6)
  %31 = getelementptr inbounds nuw i8, ptr %28, i64 16
  %32 = load i32, ptr %31, align 8
  store i32 %32, ptr %3, align 4
  br label %33

33:                                               ; preds = %blockreftable_lookup.exit.thread, %30
  %.1.ph.i.i9 = phi ptr [ null, %blockreftable_lookup.exit.thread ], [ %28, %30 ]
  ret ptr %.1.ph.i.i9
}